target datalayout = "e-m:e-p270:32:32-p271:32:32-p272:64:64-i64:64-i128:128-f80:128-n8:16:32:64-S128"
target triple = "x86_64-pc-linux-gnu"

@.str = private unnamed_addr constant [17 x i8] c"PROJ_LOG_SQLITE3\00", align 1

; Function Attrs: mustprogress uwtable
define internal void @_ZN5osgeo4proj12_GLOBAL__N_119InstallSqliteLoggerC2Ev(ptr noundef nonnull align 1 dereferenceable(1) %0) unnamed_addr #4 align 2 {
  %2 = alloca ptr, align 8
  store ptr %0, ptr %2, align 8, !tbaa !109
  %3 = call ptr @getenv(ptr noundef @.str) #9
  %4 = icmp ne ptr %3, null
  br i1 %4, label %5, label %7

5:                                                ; preds = %1
  %6 = call i32 (i32, ...) @sqlite3_config(i32 noundef 16, ptr noundef @_ZN5osgeo4projL22projSqlite3LogCallbackEPviPKc, ptr noundef null)
  br label %7

7:                                                ; preds = %5, %1
  ret void
}