; Function Attrs: mustprogress uwtable
define internal fastcc void @_ZN5osgeo4proj12_GLOBAL__N_119InstallSqliteLoggerC2Ev() unnamed_addr #7 align 2 {
  %1 = tail call ptr @getenv(ptr noundef nonnull @.str) #24
  %.not = icmp eq ptr %1, null
  br i1 %.not, label %4, label %2

2:                                                ; preds = %0
  %3 = tail call i32 (i32, ...) @sqlite3_config(i32 noundef 16, ptr noundef nonnull @_ZN5osgeo4projL22projSqlite3LogCallbackEPviPKc, ptr noundef null)
  br label %4

4:                                                ; preds = %2, %0
  ret void
}